; Function Attrs: mustprogress uwtable
define noundef range(i32 -1, 1) i32 @_ZN3zmq13socket_base_t9inprocs_t11erase_pipesERKNSt7__cxx1112basic_stringIcSt11char_traitsIcESaIcEEE(ptr noundef nonnull align 8 dereferenceable(48) %0, ptr noundef nonnull align 8 dereferenceable(32) %1) local_unnamed_addr #0 align 2 {
  %3 = tail call { ptr, ptr } @_ZNSt8_Rb_treeINSt7__cxx1112basic_stringIcSt11char_traitsIcESaIcEEESt4pairIKS5_PN3zmq6pipe_tEESt10_Select1stISB_ESt4lessIS5_ESaISB_EE11equal_rangeERS7_(ptr noundef nonnull align 8 dereferenceable(48) %0, ptr noundef nonnull align 8 dereferenceable(32) %1)
  %4 = extractvalue { ptr, ptr } %3, 0
  %5 = extractvalue { ptr, ptr } %3, 1
  %6 = icmp eq ptr %4, %5
  br i1 %6, label %7, label %.preheader

7:                                                ; preds = %2
  %8 = tail call ptr @__errno_location() #39
  store i32 2, ptr %8, align 4, !tbaa !17
  br label %14

9:                                                ; preds = %.preheader
  tail call void @_ZNSt8_Rb_treeINSt7__cxx1112basic_stringIcSt11char_traitsIcESaIcEEESt4pairIKS5_PN3zmq6pipe_tEESt10_Select1stISB_ESt4lessIS5_ESaISB_EE12_M_erase_auxESt23_Rb_tree_const_iteratorISB_ESJ_(ptr noundef nonnull align 8 dereferenceable(48) %0, ptr %4, ptr %5)
  br label %14

.preheader:                                       ; preds = %2, %.preheader
  %.sroa.03.011 = phi ptr [ %13, %.preheader ], [ %4, %2 ]
  %10 = getelementptr inbounds nuw i8, ptr %.sroa.03.011, i64 64
  %11 = load ptr, ptr %10, align 8, !tbaa !19
  tail call void @_ZN3zmq6pipe_t19send_disconnect_msgEv(ptr noundef nonnull align 8 dereferenceable(328) %11)
  %12 = load ptr, ptr %10, align 8, !tbaa !19
  tail call void @_ZN3zmq6pipe_t9terminateEb(ptr noundef nonnull align 8 dereferenceable(328) %12, i1 noundef zeroext true)
  %13 = tail call noundef ptr @_ZSt18_Rb_tree_incrementPSt18_Rb_tree_node_base(ptr noundef %.sroa.03.011) #40
  %.not = icmp eq ptr %13, %5
  br i1 %.not, label %9, label %.preheader, !llvm.loop !21

14:                                               ; preds = %9, %7
  %.0 = phi i32 [ -1, %7 ], [ 0, %9 ]
  ret i32 %.0
}